target datalayout = "e-m:e-p270:32:32-p271:32:32-p272:64:64-i64:64-i128:128-f80:128-n8:16:32:64-S128"
target triple = "x86_64-pc-linux-gnu"

@.str.2 = private unnamed_addr constant [44 x i8] c"json: null 'obj' specified to cli_jsonnull\0A\00", align 1
@.str.3 = private unnamed_addr constant [52 x i8] c"json: null string specified as key to cli_jsonnull\0A\00", align 1

; Function Attrs: nounwind uwtable
define i32 @cli_jsonnull(ptr noundef %0, ptr noundef %1) #0 {
  %3 = alloca i32, align 4
  %4 = alloca ptr, align 8
  %5 = alloca ptr, align 8
  %6 = alloca i32, align 4
  %7 = alloca ptr, align 8
  store ptr %0, ptr %4, align 8
  store ptr %1, ptr %5, align 8
  store ptr null, ptr %7, align 8
  %8 = load ptr, ptr %4, align 8
  %9 = icmp eq ptr null, %8
  br i1 %9, label %10, label %11

10:                                               ; preds = %2
  call void (ptr, ...) @cli_dbgmsg(ptr noundef @.str.2)
  store i32 2, ptr %3, align 4
  br label %34

11:                                               ; preds = %2
  %12 = load ptr, ptr %4, align 8
  %13 = call i32 @json_object_get_type(ptr noundef %12)
  store i32 %13, ptr %6, align 4
  %14 = load i32, ptr %6, align 4
  %15 = icmp eq i32 %14, 4
  br i1 %15, label %16, label %25

16:                                               ; preds = %11
  %17 = load ptr, ptr %5, align 8
  %18 = icmp eq ptr null, %17
  br i1 %18, label %19, label %20

19:                                               ; preds = %16
  call void (ptr, ...) @cli_dbgmsg(ptr noundef @.str.3)
  store i32 2, ptr %3, align 4
  br label %34

20:                                               ; preds = %16
  %21 = load ptr, ptr %4, align 8
  %22 = load ptr, ptr %5, align 8
  %23 = load ptr, ptr %7, align 8
  %24 = call i32 @json_object_object_add(ptr noundef %21, ptr noundef %22, ptr noundef %23)
  br label %33

25:                                               ; preds = %11
  %26 = load i32, ptr %6, align 4
  %27 = icmp eq i32 %26, 5
  br i1 %27, label %28, label %32

28:                                               ; preds = %25
  %29 = load ptr, ptr %4, align 8
  %30 = load ptr, ptr %7, align 8
  %31 = call i32 @json_object_array_add(ptr noundef %29, ptr noundef %30)
  br label %32

32:                                               ; preds = %28, %25
  br label %33

33:                                               ; preds = %32, %20
  store i32 0, ptr %3, align 4
  br label %34

34:                                               ; preds = %33, %19, %10
  %35 = load i32, ptr %3, align 4
  ret i32 %35
}