; Function Attrs: nounwind uwtable
define noundef i32 @cli_jsonnull(ptr noundef %0, ptr noundef %1) local_unnamed_addr #0 {
  %3 = icmp eq ptr %0, null
  br i1 %3, label %4, label %5

4:                                                ; preds = %2
  tail call void (ptr, ...) @cli_dbgmsg(ptr noundef nonnull @.str.2) #2
  br label %14

5:                                                ; preds = %2
  %6 = tail call i32 @json_object_get_type(ptr noundef nonnull %0) #2
  switch i32 %6, label %14 [
    i32 4, label %7
    i32 5, label %12
  ]

7:                                                ; preds = %5
  %8 = icmp eq ptr %1, null
  br i1 %8, label %9, label %10

9:                                                ; preds = %7
  tail call void (ptr, ...) @cli_dbgmsg(ptr noundef nonnull @.str.3) #2
  br label %14

10:                                               ; preds = %7
  %11 = tail call i32 @json_object_object_add(ptr noundef nonnull %0, ptr noundef nonnull %1, ptr noundef null) #2
  br label %14

12:                                               ; preds = %5
  %13 = tail call i32 @json_object_array_add(ptr noundef nonnull %0, ptr noundef null) #2
  br label %14

14:                                               ; preds = %10, %12, %5, %9, %4
  %.0 = phi i32 [ 2, %4 ], [ 2, %9 ], [ 0, %5 ], [ 0, %12 ], [ 0, %10 ]
  ret i32 %.0
}